target datalayout = "e-m:e-p270:32:32-p271:32:32-p272:64:64-i64:64-i128:128-f80:128-n8:16:32:64-S128"
target triple = "x86_64-pc-linux-gnu"

%"class.ncnn::Convolution1D" = type { %"class.ncnn::Layer", i32, i32, i32, i32, i32, i32, float, i32, i32, i32, %"class.ncnn::Mat", i32, %"class.ncnn::Mat", %"class.ncnn::Mat" }
%"class.ncnn::Layer" = type { ptr, i8, i8, i8, i8, i8, i8, i8, i8, i8, i8, i8, i8, i8, i8, i8, i8, i8, i8, i8, i8, i32, ptr, i32, %"class.std::__cxx11::basic_string", %"class.std::__cxx11::basic_string", %"class.std::vector", %"class.std::vector", %"class.std::vector.3", %"class.std::vector.3" }
%"class.std::__cxx11::basic_string" = type { %"struct.std::__cxx11::basic_string<char>::_Alloc_hider", i64, %union.anon }
%"struct.std::__cxx11::basic_string<char>::_Alloc_hider" = type { ptr }
%union.anon = type { i64, [8 x i8] }
%"class.std::vector" = type { %"struct.std::_Vector_base" }
%"struct.std::_Vector_base" = type { %"struct.std::_Vector_base<int, std::allocator<int>>::_Vector_impl" }
%"struct.std::_Vector_base<int, std::allocator<int>>::_Vector_impl" = type { %"struct.std::_Vector_base<int, std::allocator<int>>::_Vector_impl_data" }
%"struct.std::_Vector_base<int, std::allocator<int>>::_Vector_impl_data" = type { ptr, ptr, ptr }
%"class.std::vector.3" = type { %"struct.std::_Vector_base.4" }
%"struct.std::_Vector_base.4" = type { %"struct.std::_Vector_base<ncnn::Mat, std::allocator<ncnn::Mat>>::_Vector_impl" }
%"struct.std::_Vector_base<ncnn::Mat, std::allocator<ncnn::Mat>>::_Vector_impl" = type { %"struct.std::_Vector_base<ncnn::Mat, std::allocator<ncnn::Mat>>::_Vector_impl_data" }
%"struct.std::_Vector_base<ncnn::Mat, std::allocator<ncnn::Mat>>::_Vector_impl_data" = type { ptr, ptr, ptr }
%"class.ncnn::Mat" = type { ptr, ptr, i64, i32, ptr, i32, i32, i32, i32, i32, i64 }
%"class.ncnn::Option" = type { i8, i32, ptr, ptr, i32, i8, i8, i8, i8, i8, i8, i8, i8, i8, i8, i8, i8, i8, i8, i8, i8, i8, i8, i8, i8, i32, i8, i8, i8, i8, i8, i8, i8, i8, i8, i8, i8, i8 }

; Function Attrs: mustprogress uwtable
define hidden void @_ZNK4ncnn13Convolution1D12make_paddingERKNS_3MatERS1_iRKNS_6OptionE(ptr noundef nonnull align 8 dereferenceable(472) %0, ptr noundef nonnull align 8 dereferenceable(72) %1, ptr noundef nonnull align 8 dereferenceable(72) %2, i32 noundef %3, ptr noundef nonnull align 8 dereferenceable(64) %4) #0 align 2 {
  %6 = alloca ptr, align 8
  %7 = alloca ptr, align 8
  %8 = alloca i32, align 4
  %9 = alloca i32, align 4
  %10 = alloca ptr, align 8
  %11 = alloca ptr, align 8
  %12 = alloca ptr, align 8
  %13 = alloca i32, align 4
  %14 = alloca i32, align 4
  %15 = alloca ptr, align 8
  %16 = alloca ptr, align 8
  %17 = alloca ptr, align 8
  %18 = alloca i32, align 4
  %19 = alloca ptr, align 8
  %20 = alloca i32, align 4
  %21 = alloca i32, align 4
  %22 = alloca %"class.ncnn::Option", align 8
  %23 = alloca i32, align 4
  %24 = alloca %"class.ncnn::Option", align 8
  %25 = alloca i32, align 4
  %26 = alloca %"class.ncnn::Option", align 8
  store ptr %0, ptr %15, align 8
  store ptr %1, ptr %16, align 8
  store ptr %2, ptr %17, align 8
  store i32 %3, ptr %18, align 4
  store ptr %4, ptr %19, align 8
  %27 = load ptr, ptr %15, align 8
  %28 = load ptr, ptr %16, align 8
  %29 = getelementptr inbounds nuw %"class.ncnn::Mat", ptr %28, i32 0, i32 6
  %30 = load i32, ptr %29, align 4
  store i32 %30, ptr %20, align 4
  %31 = getelementptr inbounds nuw %"class.ncnn::Convolution1D", ptr %27, i32 0, i32 3
  %32 = load i32, ptr %31, align 8
  %33 = load i32, ptr %18, align 4
  %34 = sub nsw i32 %33, 1
  %35 = mul nsw i32 %32, %34
  %36 = add nsw i32 %35, 1
  store i32 %36, ptr %21, align 4
  %37 = load ptr, ptr %16, align 8
  %38 = load ptr, ptr %17, align 8
  store ptr %38, ptr %11, align 8
  store ptr %37, ptr %12, align 8
  %39 = load ptr, ptr %11, align 8
  %40 = load ptr, ptr %12, align 8
  %41 = icmp eq ptr %39, %40
  br i1 %41, label %42, label %43

42:                                               ; preds = %5
  store ptr %39, ptr %10, align 8
  br label %137

43:                                               ; preds = %5
  %44 = load ptr, ptr %12, align 8
  %45 = getelementptr inbounds nuw %"class.ncnn::Mat", ptr %44, i32 0, i32 1
  %46 = load ptr, ptr %45, align 8
  %47 = icmp ne ptr %46, null
  br i1 %47, label %48, label %54

48:                                               ; preds = %43
  %49 = load ptr, ptr %12, align 8
  %50 = getelementptr inbounds nuw %"class.ncnn::Mat", ptr %49, i32 0, i32 1
  %51 = load ptr, ptr %50, align 8
  store i32 1, ptr %13, align 4
  %52 = load i32, ptr %13, align 4
  %53 = atomicrmw add ptr %51, i32 %52 acq_rel, align 4
  store i32 %53, ptr %14, align 4
  br label %54

54:                                               ; preds = %48, %43
  store ptr %39, ptr %7, align 8
  %55 = load ptr, ptr %7, align 8
  %56 = getelementptr inbounds nuw %"class.ncnn::Mat", ptr %55, i32 0, i32 1
  %57 = load ptr, ptr %56, align 8
  %58 = icmp ne ptr %57, null
  br i1 %58, label %59, label %85

59:                                               ; preds = %54
  %60 = getelementptr inbounds nuw %"class.ncnn::Mat", ptr %55, i32 0, i32 1
  %61 = load ptr, ptr %60, align 8
  store i32 -1, ptr %8, align 4
  %62 = load i32, ptr %8, align 4
  %63 = atomicrmw add ptr %61, i32 %62 acq_rel, align 4
  store i32 %63, ptr %9, align 4
  %64 = load i32, ptr %9, align 4
  %65 = icmp eq i32 %64, 1
  br i1 %65, label %66, label %85

66:                                               ; preds = %59
  %67 = getelementptr inbounds nuw %"class.ncnn::Mat", ptr %55, i32 0, i32 4
  %68 = load ptr, ptr %67, align 8
  %69 = icmp ne ptr %68, null
  br i1 %69, label %70, label %77

70:                                               ; preds = %66
  %71 = getelementptr inbounds nuw %"class.ncnn::Mat", ptr %55, i32 0, i32 4
  %72 = load ptr, ptr %71, align 8
  %73 = load ptr, ptr %55, align 8
  %74 = load ptr, ptr %72, align 8
  %75 = getelementptr inbounds ptr, ptr %74, i64 3
  %76 = load ptr, ptr %75, align 8
  call void %76(ptr noundef nonnull align 8 dereferenceable(8) %72, ptr noundef %73)
  br label %84

77:                                               ; preds = %66
  %78 = load ptr, ptr %55, align 8
  store ptr %78, ptr %6, align 8
  %79 = load ptr, ptr %6, align 8
  %80 = icmp ne ptr %79, null
  br i1 %80, label %81, label %83

81:                                               ; preds = %77
  %82 = load ptr, ptr %6, align 8
  call void @free(ptr noundef %82) #8
  br label %83

83:                                               ; preds = %81, %77
  br label %84

84:                                               ; preds = %83, %70
  br label %85

85:                                               ; preds = %84, %59, %54
  store ptr null, ptr %55, align 8
  %86 = getelementptr inbounds nuw %"class.ncnn::Mat", ptr %55, i32 0, i32 2
  store i64 0, ptr %86, align 8
  %87 = getelementptr inbounds nuw %"class.ncnn::Mat", ptr %55, i32 0, i32 3
  store i32 0, ptr %87, align 8
  %88 = getelementptr inbounds nuw %"class.ncnn::Mat", ptr %55, i32 0, i32 5
  store i32 0, ptr %88, align 8
  %89 = getelementptr inbounds nuw %"class.ncnn::Mat", ptr %55, i32 0, i32 6
  store i32 0, ptr %89, align 4
  %90 = getelementptr inbounds nuw %"class.ncnn::Mat", ptr %55, i32 0, i32 7
  store i32 0, ptr %90, align 8
  %91 = getelementptr inbounds nuw %"class.ncnn::Mat", ptr %55, i32 0, i32 8
  store i32 0, ptr %91, align 4
  %92 = getelementptr inbounds nuw %"class.ncnn::Mat", ptr %55, i32 0, i32 9
  store i32 0, ptr %92, align 8
  %93 = getelementptr inbounds nuw %"class.ncnn::Mat", ptr %55, i32 0, i32 10
  store i64 0, ptr %93, align 8
  %94 = getelementptr inbounds nuw %"class.ncnn::Mat", ptr %55, i32 0, i32 1
  store ptr null, ptr %94, align 8
  %95 = load ptr, ptr %12, align 8
  %96 = load ptr, ptr %95, align 8
  store ptr %96, ptr %39, align 8
  %97 = load ptr, ptr %12, align 8
  %98 = getelementptr inbounds nuw %"class.ncnn::Mat", ptr %97, i32 0, i32 1
  %99 = load ptr, ptr %98, align 8
  %100 = getelementptr inbounds nuw %"class.ncnn::Mat", ptr %39, i32 0, i32 1
  store ptr %99, ptr %100, align 8
  %101 = load ptr, ptr %12, align 8
  %102 = getelementptr inbounds nuw %"class.ncnn::Mat", ptr %101, i32 0, i32 2
  %103 = load i64, ptr %102, align 8
  %104 = getelementptr inbounds nuw %"class.ncnn::Mat", ptr %39, i32 0, i32 2
  store i64 %103, ptr %104, align 8
  %105 = load ptr, ptr %12, align 8
  %106 = getelementptr inbounds nuw %"class.ncnn::Mat", ptr %105, i32 0, i32 3
  %107 = load i32, ptr %106, align 8
  %108 = getelementptr inbounds nuw %"class.ncnn::Mat", ptr %39, i32 0, i32 3
  store i32 %107, ptr %108, align 8
  %109 = load ptr, ptr %12, align 8
  %110 = getelementptr inbounds nuw %"class.ncnn::Mat", ptr %109, i32 0, i32 4
  %111 = load ptr, ptr %110, align 8
  %112 = getelementptr inbounds nuw %"class.ncnn::Mat", ptr %39, i32 0, i32 4
  store ptr %111, ptr %112, align 8
  %113 = load ptr, ptr %12, align 8
  %114 = getelementptr inbounds nuw %"class.ncnn::Mat", ptr %113, i32 0, i32 5
  %115 = load i32, ptr %114, align 8
  %116 = getelementptr inbounds nuw %"class.ncnn::Mat", ptr %39, i32 0, i32 5
  store i32 %115, ptr %116, align 8
  %117 = load ptr, ptr %12, align 8
  %118 = getelementptr inbounds nuw %"class.ncnn::Mat", ptr %117, i32 0, i32 6
  %119 = load i32, ptr %118, align 4
  %120 = getelementptr inbounds nuw %"class.ncnn::Mat", ptr %39, i32 0, i32 6
  store i32 %119, ptr %120, align 4
  %121 = load ptr, ptr %12, align 8
  %122 = getelementptr inbounds nuw %"class.ncnn::Mat", ptr %121, i32 0, i32 7
  %123 = load i32, ptr %122, align 8
  %124 = getelementptr inbounds nuw %"class.ncnn::Mat", ptr %39, i32 0, i32 7
  store i32 %123, ptr %124, align 8
  %125 = load ptr, ptr %12, align 8
  %126 = getelementptr inbounds nuw %"class.ncnn::Mat", ptr %125, i32 0, i32 8
  %127 = load i32, ptr %126, align 4
  %128 = getelementptr inbounds nuw %"class.ncnn::Mat", ptr %39, i32 0, i32 8
  store i32 %127, ptr %128, align 4
  %129 = load ptr, ptr %12, align 8
  %130 = getelementptr inbounds nuw %"class.ncnn::Mat", ptr %129, i32 0, i32 9
  %131 = load i32, ptr %130, align 8
  %132 = getelementptr inbounds nuw %"class.ncnn::Mat", ptr %39, i32 0, i32 9
  store i32 %131, ptr %132, align 8
  %133 = load ptr, ptr %12, align 8
  %134 = getelementptr inbounds nuw %"class.ncnn::Mat", ptr %133, i32 0, i32 10
  %135 = load i64, ptr %134, align 8
  %136 = getelementptr inbounds nuw %"class.ncnn::Mat", ptr %39, i32 0, i32 10
  store i64 %135, ptr %136, align 8
  store ptr %39, ptr %10, align 8
  br label %137

137:                                              ; preds = %85, %42
  %138 = getelementptr inbounds nuw %"class.ncnn::Convolution1D", ptr %27, i32 0, i32 5
  %139 = load i32, ptr %138, align 8
  %140 = icmp sgt i32 %139, 0
  br i1 %140, label %145, label %141

141:                                              ; preds = %137
  %142 = getelementptr inbounds nuw %"class.ncnn::Convolution1D", ptr %27, i32 0, i32 6
  %143 = load i32, ptr %142, align 4
  %144 = icmp sgt i32 %143, 0
  br i1 %144, label %145, label %159

145:                                              ; preds = %141, %137
  %146 = load ptr, ptr %19, align 8
  call void @llvm.memcpy.p0.p0.i64(ptr align 8 %22, ptr align 8 %146, i64 64, i1 false)
  %147 = load ptr, ptr %19, align 8
  %148 = getelementptr inbounds nuw %"class.ncnn::Option", ptr %147, i32 0, i32 3
  %149 = load ptr, ptr %148, align 8
  %150 = getelementptr inbounds nuw %"class.ncnn::Option", ptr %22, i32 0, i32 2
  store ptr %149, ptr %150, align 8
  %151 = load ptr, ptr %16, align 8
  %152 = load ptr, ptr %17, align 8
  %153 = getelementptr inbounds nuw %"class.ncnn::Convolution1D", ptr %27, i32 0, i32 5
  %154 = load i32, ptr %153, align 8
  %155 = getelementptr inbounds nuw %"class.ncnn::Convolution1D", ptr %27, i32 0, i32 6
  %156 = load i32, ptr %155, align 4
  %157 = getelementptr inbounds nuw %"class.ncnn::Convolution1D", ptr %27, i32 0, i32 7
  %158 = load float, ptr %157, align 8
  call void @_ZN4ncnn16copy_make_borderERKNS_3MatERS0_iiiiifRKNS_6OptionE(ptr noundef nonnull align 8 dereferenceable(72) %151, ptr noundef nonnull align 8 dereferenceable(72) %152, i32 noundef 0, i32 noundef 0, i32 noundef %154, i32 noundef %156, i32 noundef 0, float noundef nofpclass(nan inf) %158, ptr noundef nonnull align 8 dereferenceable(64) %22)
  br label %241

159:                                              ; preds = %141
  %160 = getelementptr inbounds nuw %"class.ncnn::Convolution1D", ptr %27, i32 0, i32 5
  %161 = load i32, ptr %160, align 8
  %162 = icmp eq i32 %161, -233
  br i1 %162, label %163, label %199

163:                                              ; preds = %159
  %164 = getelementptr inbounds nuw %"class.ncnn::Convolution1D", ptr %27, i32 0, i32 6
  %165 = load i32, ptr %164, align 4
  %166 = icmp eq i32 %165, -233
  br i1 %166, label %167, label %199

167:                                              ; preds = %163
  %168 = load i32, ptr %21, align 4
  %169 = load i32, ptr %20, align 4
  %170 = sub nsw i32 %169, 1
  %171 = getelementptr inbounds nuw %"class.ncnn::Convolution1D", ptr %27, i32 0, i32 4
  %172 = load i32, ptr %171, align 4
  %173 = sdiv i32 %170, %172
  %174 = getelementptr inbounds nuw %"class.ncnn::Convolution1D", ptr %27, i32 0, i32 4
  %175 = load i32, ptr %174, align 4
  %176 = mul nsw i32 %173, %175
  %177 = add nsw i32 %168, %176
  %178 = load i32, ptr %20, align 4
  %179 = sub nsw i32 %177, %178
  store i32 %179, ptr %23, align 4
  %180 = load i32, ptr %23, align 4
  %181 = icmp sgt i32 %180, 0
  br i1 %181, label %182, label %198

182:                                              ; preds = %167
  %183 = load ptr, ptr %19, align 8
  call void @llvm.memcpy.p0.p0.i64(ptr align 8 %24, ptr align 8 %183, i64 64, i1 false)
  %184 = load ptr, ptr %19, align 8
  %185 = getelementptr inbounds nuw %"class.ncnn::Option", ptr %184, i32 0, i32 3
  %186 = load ptr, ptr %185, align 8
  %187 = getelementptr inbounds nuw %"class.ncnn::Option", ptr %24, i32 0, i32 2
  store ptr %186, ptr %187, align 8
  %188 = load ptr, ptr %16, align 8
  %189 = load ptr, ptr %17, align 8
  %190 = load i32, ptr %23, align 4
  %191 = sdiv i32 %190, 2
  %192 = load i32, ptr %23, align 4
  %193 = load i32, ptr %23, align 4
  %194 = sdiv i32 %193, 2
  %195 = sub nsw i32 %192, %194
  %196 = getelementptr inbounds nuw %"class.ncnn::Convolution1D", ptr %27, i32 0, i32 7
  %197 = load float, ptr %196, align 8
  call void @_ZN4ncnn16copy_make_borderERKNS_3MatERS0_iiiiifRKNS_6OptionE(ptr noundef nonnull align 8 dereferenceable(72) %188, ptr noundef nonnull align 8 dereferenceable(72) %189, i32 noundef 0, i32 noundef 0, i32 noundef %191, i32 noundef %195, i32 noundef 0, float noundef nofpclass(nan inf) %197, ptr noundef nonnull align 8 dereferenceable(64) %24)
  br label %198

198:                                              ; preds = %182, %167
  br label %240

199:                                              ; preds = %163, %159
  %200 = getelementptr inbounds nuw %"class.ncnn::Convolution1D", ptr %27, i32 0, i32 5
  %201 = load i32, ptr %200, align 8
  %202 = icmp eq i32 %201, -234
  br i1 %202, label %203, label %239

203:                                              ; preds = %199
  %204 = getelementptr inbounds nuw %"class.ncnn::Convolution1D", ptr %27, i32 0, i32 6
  %205 = load i32, ptr %204, align 4
  %206 = icmp eq i32 %205, -234
  br i1 %206, label %207, label %239

207:                                              ; preds = %203
  %208 = load i32, ptr %21, align 4
  %209 = load i32, ptr %20, align 4
  %210 = sub nsw i32 %209, 1
  %211 = getelementptr inbounds nuw %"class.ncnn::Convolution1D", ptr %27, i32 0, i32 4
  %212 = load i32, ptr %211, align 4
  %213 = sdiv i32 %210, %212
  %214 = getelementptr inbounds nuw %"class.ncnn::Convolution1D", ptr %27, i32 0, i32 4
  %215 = load i32, ptr %214, align 4
  %216 = mul nsw i32 %213, %215
  %217 = add nsw i32 %208, %216
  %218 = load i32, ptr %20, align 4
  %219 = sub nsw i32 %217, %218
  store i32 %219, ptr %25, align 4
  %220 = load i32, ptr %25, align 4
  %221 = icmp sgt i32 %220, 0
  br i1 %221, label %222, label %238

222:                                              ; preds = %207
  %223 = load ptr, ptr %19, align 8
  call void @llvm.memcpy.p0.p0.i64(ptr align 8 %26, ptr align 8 %223, i64 64, i1 false)
  %224 = load ptr, ptr %19, align 8
  %225 = getelementptr inbounds nuw %"class.ncnn::Option", ptr %224, i32 0, i32 3
  %226 = load ptr, ptr %225, align 8
  %227 = getelementptr inbounds nuw %"class.ncnn::Option", ptr %26, i32 0, i32 2
  store ptr %226, ptr %227, align 8
  %228 = load ptr, ptr %16, align 8
  %229 = load ptr, ptr %17, align 8
  %230 = load i32, ptr %25, align 4
  %231 = load i32, ptr %25, align 4
  %232 = sdiv i32 %231, 2
  %233 = sub nsw i32 %230, %232
  %234 = load i32, ptr %25, align 4
  %235 = sdiv i32 %234, 2
  %236 = getelementptr inbounds nuw %"class.ncnn::Convolution1D", ptr %27, i32 0, i32 7
  %237 = load float, ptr %236, align 8
  call void @_ZN4ncnn16copy_make_borderERKNS_3MatERS0_iiiiifRKNS_6OptionE(ptr noundef nonnull align 8 dereferenceable(72) %228, ptr noundef nonnull align 8 dereferenceable(72) %229, i32 noundef 0, i32 noundef 0, i32 noundef %233, i32 noundef %235, i32 noundef 0, float noundef nofpclass(nan inf) %237, ptr noundef nonnull align 8 dereferenceable(64) %26)
  br label %238

238:                                              ; preds = %222, %207
  br label %239

239:                                              ; preds = %238, %203, %199
  br label %240

240:                                              ; preds = %239, %198
  br label %241

241:                                              ; preds = %240, %145
  ret void
}