; Function Attrs: mustprogress uwtable
define hidden void @_ZNK4ncnn13Convolution1D12make_paddingERKNS_3MatERS1_iRKNS_6OptionE(ptr nocapture noundef nonnull readonly align 8 dereferenceable(472) %0, ptr noundef nonnull align 8 dereferenceable(72) %1, ptr noundef nonnull align 8 dereferenceable(72) %2, i32 noundef %3, ptr nocapture noundef nonnull readonly align 8 dereferenceable(64) %4) local_unnamed_addr #0 align 2 {
  %6 = alloca %"class.ncnn::Option", align 8
  %7 = alloca %"class.ncnn::Option", align 8
  %8 = alloca %"class.ncnn::Option", align 8
  %9 = getelementptr inbounds nuw i8, ptr %1, i64 44
  %10 = load i32, ptr %9, align 4
  %.fr63 = freeze i32 %10
  %11 = getelementptr inbounds nuw i8, ptr %0, i64 216
  %12 = load i32, ptr %11, align 8
  %13 = add nsw i32 %3, -1
  %14 = mul nsw i32 %12, %13
  %15 = icmp eq ptr %2, %1
  br i1 %15, label %66, label %16

16:                                               ; preds = %5
  %17 = getelementptr inbounds nuw i8, ptr %1, i64 8
  %18 = load ptr, ptr %17, align 8
  %.not = icmp eq ptr %18, null
  br i1 %.not, label %21, label %19

19:                                               ; preds = %16
  %20 = atomicrmw add ptr %18, i32 1 acq_rel, align 4
  br label %21

21:                                               ; preds = %19, %16
  %22 = getelementptr inbounds nuw i8, ptr %2, i64 8
  %23 = load ptr, ptr %22, align 8
  %.not60 = icmp eq ptr %23, null
  br i1 %.not60, label %37, label %24

24:                                               ; preds = %21
  %25 = atomicrmw add ptr %23, i32 -1 acq_rel, align 4
  %26 = icmp eq i32 %25, 1
  br i1 %26, label %27, label %37

27:                                               ; preds = %24
  %28 = getelementptr inbounds nuw i8, ptr %2, i64 32
  %29 = load ptr, ptr %28, align 8
  %.not61 = icmp eq ptr %29, null
  %30 = load ptr, ptr %2, align 8
  br i1 %.not61, label %35, label %31

31:                                               ; preds = %27
  %32 = load ptr, ptr %29, align 8
  %33 = getelementptr inbounds i8, ptr %32, i64 24
  %34 = load ptr, ptr %33, align 8
  tail call void %34(ptr noundef nonnull align 8 dereferenceable(8) %29, ptr noundef %30)
  br label %37

35:                                               ; preds = %27
  %.not62 = icmp eq ptr %30, null
  br i1 %.not62, label %37, label %36

36:                                               ; preds = %35
  tail call void @free(ptr noundef nonnull %30) #12
  br label %37

37:                                               ; preds = %31, %36, %35, %24, %21
  %38 = getelementptr inbounds nuw i8, ptr %2, i64 16
  %39 = getelementptr inbounds nuw i8, ptr %2, i64 24
  %40 = getelementptr inbounds nuw i8, ptr %2, i64 40
  %41 = getelementptr inbounds nuw i8, ptr %2, i64 44
  %42 = getelementptr inbounds nuw i8, ptr %2, i64 48
  %43 = getelementptr inbounds nuw i8, ptr %2, i64 52
  %44 = getelementptr inbounds nuw i8, ptr %2, i64 56
  %45 = getelementptr inbounds nuw i8, ptr %2, i64 64
  store i64 0, ptr %45, align 8
  tail call void @llvm.memset.p0.i64(ptr noundef nonnull align 8 dereferenceable(28) %2, i8 0, i64 28, i1 false)
  tail call void @llvm.memset.p0.i64(ptr noundef nonnull align 8 dereferenceable(20) %40, i8 0, i64 20, i1 false)
  %46 = load ptr, ptr %1, align 8
  store ptr %46, ptr %2, align 8
  %47 = load ptr, ptr %17, align 8
  store ptr %47, ptr %22, align 8
  %48 = getelementptr inbounds nuw i8, ptr %1, i64 16
  %49 = load i64, ptr %48, align 8
  store i64 %49, ptr %38, align 8
  %50 = getelementptr inbounds nuw i8, ptr %1, i64 24
  %51 = load i32, ptr %50, align 8
  store i32 %51, ptr %39, align 8
  %52 = getelementptr inbounds nuw i8, ptr %1, i64 32
  %53 = load ptr, ptr %52, align 8
  %54 = getelementptr inbounds nuw i8, ptr %2, i64 32
  store ptr %53, ptr %54, align 8
  %55 = getelementptr inbounds nuw i8, ptr %1, i64 40
  %56 = load i32, ptr %55, align 8
  store i32 %56, ptr %40, align 8
  %57 = load i32, ptr %9, align 4
  store i32 %57, ptr %41, align 4
  %58 = getelementptr inbounds nuw i8, ptr %1, i64 48
  %59 = load i32, ptr %58, align 8
  store i32 %59, ptr %42, align 8
  %60 = getelementptr inbounds nuw i8, ptr %1, i64 52
  %61 = load i32, ptr %60, align 4
  store i32 %61, ptr %43, align 4
  %62 = getelementptr inbounds nuw i8, ptr %1, i64 56
  %63 = load i32, ptr %62, align 8
  store i32 %63, ptr %44, align 8
  %64 = getelementptr inbounds nuw i8, ptr %1, i64 64
  %65 = load i64, ptr %64, align 8
  store i64 %65, ptr %45, align 8
  br label %66

66:                                               ; preds = %5, %37
  %67 = getelementptr inbounds nuw i8, ptr %0, i64 224
  %68 = load i32, ptr %67, align 8
  %69 = icmp sgt i32 %68, 0
  %.phi.trans.insert = getelementptr inbounds nuw i8, ptr %0, i64 228
  %.pre = load i32, ptr %.phi.trans.insert, align 4
  %70 = icmp sgt i32 %.pre, 0
  %or.cond66 = select i1 %69, i1 true, i1 %70
  br i1 %or.cond66, label %._crit_edge, label %76

._crit_edge:                                      ; preds = %66
  call void @llvm.memcpy.p0.p0.i64(ptr noundef nonnull align 8 dereferenceable(64) %6, ptr noundef nonnull align 8 dereferenceable(64) %4, i64 64, i1 false)
  %71 = getelementptr inbounds nuw i8, ptr %4, i64 16
  %72 = load ptr, ptr %71, align 8
  %73 = getelementptr inbounds nuw i8, ptr %6, i64 8
  store ptr %72, ptr %73, align 8
  %74 = getelementptr inbounds nuw i8, ptr %0, i64 232
  %75 = load float, ptr %74, align 8
  call void @_ZN4ncnn16copy_make_borderERKNS_3MatERS0_iiiiifRKNS_6OptionE(ptr noundef nonnull align 8 dereferenceable(72) %1, ptr noundef nonnull align 8 dereferenceable(72) %2, i32 noundef 0, i32 noundef 0, i32 noundef %68, i32 noundef %.pre, i32 noundef 0, float noundef nofpclass(nan inf) %75, ptr noundef nonnull align 8 dereferenceable(64) %6)
  br label %112

76:                                               ; preds = %66
  %77 = icmp eq i32 %68, -233
  %78 = icmp eq i32 %.pre, -233
  %or.cond = and i1 %77, %78
  br i1 %or.cond, label %79, label %94

79:                                               ; preds = %76
  %80 = add nsw i32 %.fr63, -1
  %81 = getelementptr inbounds nuw i8, ptr %0, i64 220
  %82 = load i32, ptr %81, align 4
  %83 = srem i32 %80, %82
  %84 = sub i32 %14, %83
  %85 = icmp sgt i32 %84, 0
  br i1 %85, label %86, label %112

86:                                               ; preds = %79
  call void @llvm.memcpy.p0.p0.i64(ptr noundef nonnull align 8 dereferenceable(64) %7, ptr noundef nonnull align 8 dereferenceable(64) %4, i64 64, i1 false)
  %87 = getelementptr inbounds nuw i8, ptr %4, i64 16
  %88 = load ptr, ptr %87, align 8
  %89 = getelementptr inbounds nuw i8, ptr %7, i64 8
  store ptr %88, ptr %89, align 8
  %90 = lshr i32 %84, 1
  %91 = sub nsw i32 %84, %90
  %92 = getelementptr inbounds nuw i8, ptr %0, i64 232
  %93 = load float, ptr %92, align 8
  call void @_ZN4ncnn16copy_make_borderERKNS_3MatERS0_iiiiifRKNS_6OptionE(ptr noundef nonnull align 8 dereferenceable(72) %1, ptr noundef nonnull align 8 dereferenceable(72) %2, i32 noundef 0, i32 noundef 0, i32 noundef %90, i32 noundef %91, i32 noundef 0, float noundef nofpclass(nan inf) %93, ptr noundef nonnull align 8 dereferenceable(64) %7)
  br label %112

94:                                               ; preds = %76
  %95 = icmp eq i32 %68, -234
  %96 = icmp eq i32 %.pre, -234
  %or.cond65 = and i1 %95, %96
  br i1 %or.cond65, label %97, label %112

97:                                               ; preds = %94
  %98 = add i32 %.fr63, -1
  %99 = getelementptr inbounds nuw i8, ptr %0, i64 220
  %100 = load i32, ptr %99, align 4
  %101 = srem i32 %98, %100
  %102 = sub i32 %14, %101
  %103 = icmp sgt i32 %102, 0
  br i1 %103, label %104, label %112

104:                                              ; preds = %97
  call void @llvm.memcpy.p0.p0.i64(ptr noundef nonnull align 8 dereferenceable(64) %8, ptr noundef nonnull align 8 dereferenceable(64) %4, i64 64, i1 false)
  %105 = getelementptr inbounds nuw i8, ptr %4, i64 16
  %106 = load ptr, ptr %105, align 8
  %107 = getelementptr inbounds nuw i8, ptr %8, i64 8
  store ptr %106, ptr %107, align 8
  %108 = lshr i32 %102, 1
  %109 = sub nsw i32 %102, %108
  %110 = getelementptr inbounds nuw i8, ptr %0, i64 232
  %111 = load float, ptr %110, align 8
  call void @_ZN4ncnn16copy_make_borderERKNS_3MatERS0_iiiiifRKNS_6OptionE(ptr noundef nonnull align 8 dereferenceable(72) %1, ptr noundef nonnull align 8 dereferenceable(72) %2, i32 noundef 0, i32 noundef 0, i32 noundef %109, i32 noundef %108, i32 noundef 0, float noundef nofpclass(nan inf) %111, ptr noundef nonnull align 8 dereferenceable(64) %8)
  br label %112

112:                                              ; preds = %86, %79, %97, %104, %94, %._crit_edge
  ret void
}